target datalayout = "e-m:e-p270:32:32-p271:32:32-p272:64:64-i64:64-i128:128-f80:128-n8:16:32:64-S128"
target triple = "x86_64-pc-linux-gnu"

%class.JfrArtifactSet = type <{ ptr, ptr, ptr, ptr, i64, i8, [7 x i8] }>

; Function Attrs: mustprogress nounwind uwtable
define hidden void @_ZN14JfrArtifactSetD2Ev(ptr noundef nonnull align 8 dereferenceable(41) %0) unnamed_addr #1 align 2 {
  %2 = alloca ptr, align 8
  store ptr %0, ptr %2, align 8
  %3 = load ptr, ptr %2, align 8
  %4 = getelementptr inbounds %class.JfrArtifactSet, ptr %3, i32 0, i32 0
  %5 = load ptr, ptr %4, align 8
  %6 = icmp eq ptr %5, null
  br i1 %6, label %8, label %7

7:                                                ; preds = %1
  call void @_ZN14JfrSymbolTableD1Ev(ptr noundef nonnull align 8 dereferenceable(57) %5) #5
  call void @_ZN11JfrCHeapObjdlEPvm(ptr noundef %5, i64 noundef 64) #5
  br label %8

8:                                                ; preds = %7, %1
  ret void
}