; Function Attrs: mustprogress nounwind uwtable
define hidden void @_ZN14JfrArtifactSetD2Ev(ptr nocapture noundef nonnull readonly align 8 dereferenceable(41) %0) unnamed_addr #0 align 2 {
  %2 = load ptr, ptr %0, align 8
  %3 = icmp eq ptr %2, null
  br i1 %3, label %5, label %4

4:                                                ; preds = %1
  tail call void @_ZN14JfrSymbolTableD1Ev(ptr noundef nonnull align 8 dereferenceable(57) %2) #8
  tail call void @_ZN11JfrCHeapObjdlEPvm(ptr noundef nonnull %2, i64 noundef 64) #8
  br label %5

5:                                                ; preds = %4, %1
  ret void
}